; Function Attrs: nounwind uwtable
define ptr @Abc_NtkTestScorrGetName(ptr noundef readonly captures(none) %0, ptr noundef readonly captures(none) %1, i32 noundef %2) local_unnamed_addr #2 {
  %4 = getelementptr i8, ptr %1, i64 8
  %.val = load ptr, ptr %4, align 8, !tbaa !22
  %5 = sext i32 %2 to i64
  %6 = getelementptr inbounds i32, ptr %.val, i64 %5
  %7 = load i32, ptr %6, align 4, !tbaa !21
  %8 = icmp eq i32 %7, -1
  br i1 %8, label %13, label %9

9:                                                ; preds = %3
  %10 = getelementptr inbounds nuw i8, ptr %0, i64 24
  %11 = load ptr, ptr %10, align 8, !tbaa !55
  %12 = tail call ptr @Nm_ManFindNameById(ptr noundef %11, i32 noundef %7) #11
  br label %13

13:                                               ; preds = %3, %9
  %.0 = phi ptr [ %12, %9 ], [ null, %3 ]
  ret ptr %.0
}